; Function Attrs: nounwind uwtable
define dso_local void @ExecShutdownHashJoin(ptr noundef readonly captures(none) %0) local_unnamed_addr #0 {
  %2 = getelementptr inbounds nuw i8, ptr %0, i64 232
  %3 = load ptr, ptr %2, align 8
  %.not = icmp eq ptr %3, null
  br i1 %.not, label %6, label %4

4:                                                ; preds = %1
  tail call void @ExecHashTableDetachBatch(ptr noundef nonnull %3) #6
  %5 = load ptr, ptr %2, align 8
  tail call void @ExecHashTableDetach(ptr noundef %5) #6
  br label %6

6:                                                ; preds = %4, %1
  ret void
}